target datalayout = "e-m:e-p270:32:32-p271:32:32-p272:64:64-i64:64-i128:128-f80:128-n8:16:32:64-S128"
target triple = "x86_64-pc-linux-gnu"

%"class.google::protobuf::stringpiece_internal::StringPiece" = type { ptr, i64 }
%"class.google::protobuf::internal::LogMessage" = type { i32, ptr, i32, %"class.std::__cxx11::basic_string" }
%"class.std::__cxx11::basic_string" = type { %"struct.std::__cxx11::basic_string<char>::_Alloc_hider", i64, %union.anon }
%"struct.std::__cxx11::basic_string<char>::_Alloc_hider" = type { ptr }
%union.anon = type { i64, [8 x i8] }
%"class.google::protobuf::internal::LogFinisher" = type { i8 }

@.str = private unnamed_addr constant [149 x i8] c"generated/home/dtcxzyw/WorkSpace/Projects/compilers/llvm-opt-benchmark/bench/opencv/opencv/3rdparty/protobuf/src/google/protobuf/stubs/bytestream.cc\00", align 1
@.str.1 = private unnamed_addr constant [36 x i8] c"ByteSource::CopyTo() overran input.\00", align 1

; Function Attrs: mustprogress nounwind uwtable
define linkonce_odr hidden noundef ptr @_ZNK6google8protobuf20stringpiece_internal11StringPiece4dataEv(ptr noundef nonnull align 8 dereferenceable(16) %0) #6 comdat align 2 {
  %2 = alloca ptr, align 8
  store ptr %0, ptr %2, align 8, !tbaa !16
  %3 = load ptr, ptr %2, align 8
  %4 = getelementptr inbounds nuw %"class.google::protobuf::stringpiece_internal::StringPiece", ptr %3, i32 0, i32 0
  %5 = load ptr, ptr %4, align 8, !tbaa !23
  ret ptr %5
}

; Function Attrs: inlinehint mustprogress nounwind uwtable
define linkonce_odr noundef nonnull align 8 dereferenceable(8) ptr @_ZSt3minImERKT_S2_S2_(ptr noundef nonnull align 8 dereferenceable(8) %0, ptr noundef nonnull align 8 dereferenceable(8) %1) #7 comdat {
  %3 = alloca ptr, align 8
  %4 = alloca ptr, align 8
  %5 = alloca ptr, align 8
  store ptr %0, ptr %4, align 8, !tbaa !21
  store ptr %1, ptr %5, align 8, !tbaa !21
  %6 = load ptr, ptr %5, align 8, !tbaa !21
  %7 = load i64, ptr %6, align 8, !tbaa !10
  %8 = load ptr, ptr %4, align 8, !tbaa !21
  %9 = load i64, ptr %8, align 8, !tbaa !10
  %10 = icmp ult i64 %7, %9
  br i1 %10, label %11, label %13

11:                                               ; preds = %2
  %12 = load ptr, ptr %5, align 8, !tbaa !21
  store ptr %12, ptr %3, align 8
  br label %15

13:                                               ; preds = %2
  %14 = load ptr, ptr %4, align 8, !tbaa !21
  store ptr %14, ptr %3, align 8
  br label %15

15:                                               ; preds = %13, %11
  %16 = load ptr, ptr %3, align 8
  ret ptr %16
}

; Function Attrs: mustprogress nounwind uwtable
define linkonce_odr hidden noundef i64 @_ZNK6google8protobuf20stringpiece_internal11StringPiece4sizeEv(ptr noundef nonnull align 8 dereferenceable(16) %0) #6 comdat align 2 {
  %2 = alloca ptr, align 8
  store ptr %0, ptr %2, align 8, !tbaa !16
  %3 = load ptr, ptr %2, align 8
  %4 = getelementptr inbounds nuw %"class.google::protobuf::stringpiece_internal::StringPiece", ptr %3, i32 0, i32 1
  %5 = load i64, ptr %4, align 8, !tbaa !18
  ret i64 %5
}

; Function Attrs: mustprogress nounwind uwtable
define linkonce_odr hidden noundef zeroext i1 @_ZNK6google8protobuf20stringpiece_internal11StringPiece5emptyEv(ptr noundef nonnull align 8 dereferenceable(16) %0) #6 comdat align 2 {
  %2 = alloca ptr, align 8
  store ptr %0, ptr %2, align 8, !tbaa !16
  %3 = load ptr, ptr %2, align 8
  %4 = getelementptr inbounds nuw %"class.google::protobuf::stringpiece_internal::StringPiece", ptr %3, i32 0, i32 1
  %5 = load i64, ptr %4, align 8, !tbaa !18
  %6 = icmp eq i64 %5, 0
  ret i1 %6
}

; Function Attrs: mustprogress uwtable
define hidden void @_ZN6google8protobuf7strings10ByteSource6CopyToEPNS1_8ByteSinkEm(ptr noundef nonnull align 8 dereferenceable(8) %0, ptr noundef %1, i64 noundef %2) unnamed_addr #4 align 2 personality ptr @__gxx_personality_v0 {
  %4 = alloca ptr, align 8
  %5 = alloca ptr, align 8
  %6 = alloca i64, align 8
  %7 = alloca %"class.google::protobuf::stringpiece_internal::StringPiece", align 8
  %8 = alloca %"class.google::protobuf::internal::LogMessage", align 8
  %9 = alloca ptr, align 8
  %10 = alloca i32, align 4
  %11 = alloca %"class.google::protobuf::internal::LogFinisher", align 1
  %12 = alloca i32, align 4
  %13 = alloca i64, align 8
  %14 = alloca i64, align 8
  store ptr %0, ptr %4, align 8, !tbaa !3
  store ptr %1, ptr %5, align 8, !tbaa !8
  store i64 %2, ptr %6, align 8, !tbaa !10
  %15 = load ptr, ptr %4, align 8
  br label %16

16:                                               ; preds = %61, %3
  %17 = load i64, ptr %6, align 8, !tbaa !10
  %18 = icmp ugt i64 %17, 0
  br i1 %18, label %19, label %62

19:                                               ; preds = %16
  call void @llvm.lifetime.start.p0(i64 16, ptr %7) #3
  %20 = load ptr, ptr %15, align 8, !tbaa !12
  %21 = getelementptr inbounds ptr, ptr %20, i64 3
  %22 = load ptr, ptr %21, align 8
  %23 = call { ptr, i64 } %22(ptr noundef nonnull align 8 dereferenceable(8) %15)
  %24 = getelementptr inbounds nuw { ptr, i64 }, ptr %7, i32 0, i32 0
  %25 = extractvalue { ptr, i64 } %23, 0
  store ptr %25, ptr %24, align 8
  %26 = getelementptr inbounds nuw { ptr, i64 }, ptr %7, i32 0, i32 1
  %27 = extractvalue { ptr, i64 } %23, 1
  store i64 %27, ptr %26, align 8
  %28 = call noundef zeroext i1 @_ZNK6google8protobuf20stringpiece_internal11StringPiece5emptyEv(ptr noundef nonnull align 8 dereferenceable(16) %7)
  br i1 %28, label %29, label %42

29:                                               ; preds = %19
  call void @llvm.lifetime.start.p0(i64 56, ptr %8) #3
  call void @_ZN6google8protobuf8internal10LogMessageC1ENS0_8LogLevelEPKci(ptr noundef nonnull align 8 dereferenceable(56) %8, i32 noundef 2, ptr noundef @.str, i32 noundef 46)
  %30 = invoke noundef nonnull align 8 dereferenceable(56) ptr @_ZN6google8protobuf8internal10LogMessagelsEPKc(ptr noundef nonnull align 8 dereferenceable(56) %8, ptr noundef @.str.1)
          to label %31 unwind label %33

31:                                               ; preds = %29
  call void @llvm.lifetime.start.p0(i64 1, ptr %11) #3
  invoke void @_ZN6google8protobuf8internal11LogFinisheraSERNS1_10LogMessageE(ptr noundef nonnull align 1 dereferenceable(1) %11, ptr noundef nonnull align 8 dereferenceable(56) %30)
          to label %32 unwind label %37

32:                                               ; preds = %31
  call void @llvm.lifetime.end.p0(i64 1, ptr %11) #3
  call void @_ZN6google8protobuf8internal10LogMessageD1Ev(ptr noundef nonnull align 8 dereferenceable(56) %8) #3
  call void @llvm.lifetime.end.p0(i64 56, ptr %8) #3
  store i32 3, ptr %12, align 4
  br label %59

33:                                               ; preds = %29
  %34 = landingpad { ptr, i32 }
          cleanup
  %35 = extractvalue { ptr, i32 } %34, 0
  store ptr %35, ptr %9, align 8
  %36 = extractvalue { ptr, i32 } %34, 1
  store i32 %36, ptr %10, align 4
  br label %41

37:                                               ; preds = %31
  %38 = landingpad { ptr, i32 }
          cleanup
  %39 = extractvalue { ptr, i32 } %38, 0
  store ptr %39, ptr %9, align 8
  %40 = extractvalue { ptr, i32 } %38, 1
  store i32 %40, ptr %10, align 4
  call void @llvm.lifetime.end.p0(i64 1, ptr %11) #3
  br label %41

41:                                               ; preds = %37, %33
  call void @_ZN6google8protobuf8internal10LogMessageD1Ev(ptr noundef nonnull align 8 dereferenceable(56) %8) #3
  call void @llvm.lifetime.end.p0(i64 56, ptr %8) #3
  call void @llvm.lifetime.end.p0(i64 16, ptr %7) #3
  br label %63

42:                                               ; preds = %19
  call void @llvm.lifetime.start.p0(i64 8, ptr %13) #3
  call void @llvm.lifetime.start.p0(i64 8, ptr %14) #3
  %43 = call noundef i64 @_ZNK6google8protobuf20stringpiece_internal11StringPiece4sizeEv(ptr noundef nonnull align 8 dereferenceable(16) %7)
  store i64 %43, ptr %14, align 8, !tbaa !10
  %44 = call noundef nonnull align 8 dereferenceable(8) ptr @_ZSt3minImERKT_S2_S2_(ptr noundef nonnull align 8 dereferenceable(8) %6, ptr noundef nonnull align 8 dereferenceable(8) %14)
  %45 = load i64, ptr %44, align 8, !tbaa !10
  call void @llvm.lifetime.end.p0(i64 8, ptr %14) #3
  store i64 %45, ptr %13, align 8, !tbaa !10
  %46 = load ptr, ptr %5, align 8, !tbaa !8
  %47 = call noundef ptr @_ZNK6google8protobuf20stringpiece_internal11StringPiece4dataEv(ptr noundef nonnull align 8 dereferenceable(16) %7)
  %48 = load i64, ptr %13, align 8, !tbaa !10
  %49 = load ptr, ptr %46, align 8, !tbaa !12
  %50 = getelementptr inbounds ptr, ptr %49, i64 2
  %51 = load ptr, ptr %50, align 8
  call void %51(ptr noundef nonnull align 8 dereferenceable(8) %46, ptr noundef %47, i64 noundef %48)
  %52 = load i64, ptr %13, align 8, !tbaa !10
  %53 = load ptr, ptr %15, align 8, !tbaa !12
  %54 = getelementptr inbounds ptr, ptr %53, i64 4
  %55 = load ptr, ptr %54, align 8
  call void %55(ptr noundef nonnull align 8 dereferenceable(8) %15, i64 noundef %52)
  %56 = load i64, ptr %13, align 8, !tbaa !10
  %57 = load i64, ptr %6, align 8, !tbaa !10
  %58 = sub i64 %57, %56
  store i64 %58, ptr %6, align 8, !tbaa !10
  call void @llvm.lifetime.end.p0(i64 8, ptr %13) #3
  store i32 0, ptr %12, align 4
  br label %59

59:                                               ; preds = %42, %32
  call void @llvm.lifetime.end.p0(i64 16, ptr %7) #3
  %60 = load i32, ptr %12, align 4
  switch i32 %60, label %68 [
    i32 0, label %61
    i32 3, label %62
  ]

61:                                               ; preds = %59
  br label %16, !llvm.loop !14

62:                                               ; preds = %59, %16
  ret void

63:                                               ; preds = %41
  %64 = load ptr, ptr %9, align 8
  %65 = load i32, ptr %10, align 4
  %66 = insertvalue { ptr, i32 } poison, ptr %64, 0
  %67 = insertvalue { ptr, i32 } %66, i32 %65, 1
  resume { ptr, i32 } %67

68:                                               ; preds = %59
  unreachable
}