; Function Attrs: mustprogress uwtable
define hidden void @_ZN6google8protobuf7strings10ByteSource6CopyToEPNS1_8ByteSinkEm(ptr noundef nonnull align 8 dereferenceable(8) %0, ptr noundef %1, i64 noundef %2) unnamed_addr #3 align 2 personality ptr @__gxx_personality_v0 {
  %4 = alloca %"class.google::protobuf::internal::LogMessage", align 8
  %5 = alloca %"class.google::protobuf::internal::LogFinisher", align 1
  %.not.old = icmp eq i64 %2, 0
  br i1 %.not.old, label %.loopexit, label %.preheader

.preheader:                                       ; preds = %3, %20
  %.0 = phi i64 [ %28, %20 ], [ %2, %3 ]
  %6 = load ptr, ptr %0, align 8, !tbaa !3
  %7 = getelementptr inbounds nuw i8, ptr %6, i64 24
  %8 = load ptr, ptr %7, align 8
  %9 = tail call { ptr, i64 } %8(ptr noundef nonnull align 8 dereferenceable(8) %0)
  %10 = extractvalue { ptr, i64 } %9, 1
  %11 = icmp eq i64 %10, 0
  br i1 %11, label %12, label %20

12:                                               ; preds = %.preheader
  call void @llvm.lifetime.start.p0(i64 56, ptr nonnull %4) #20
  call void @_ZN6google8protobuf8internal10LogMessageC1ENS0_8LogLevelEPKci(ptr noundef nonnull align 8 dereferenceable(56) %4, i32 noundef 2, ptr noundef nonnull @.str, i32 noundef 46)
  %13 = invoke noundef nonnull align 8 dereferenceable(56) ptr @_ZN6google8protobuf8internal10LogMessagelsEPKc(ptr noundef nonnull align 8 dereferenceable(56) %4, ptr noundef nonnull @.str.1)
          to label %14 unwind label %15

14:                                               ; preds = %12
  call void @llvm.lifetime.start.p0(i64 1, ptr nonnull %5) #20
  invoke void @_ZN6google8protobuf8internal11LogFinisheraSERNS1_10LogMessageE(ptr noundef nonnull align 1 dereferenceable(1) %5, ptr noundef nonnull align 8 dereferenceable(56) %13)
          to label %.thread unwind label %17

.thread:                                          ; preds = %14
  call void @llvm.lifetime.end.p0(i64 1, ptr nonnull %5) #20
  call void @_ZN6google8protobuf8internal10LogMessageD1Ev(ptr noundef nonnull align 8 dereferenceable(56) %4) #20
  call void @llvm.lifetime.end.p0(i64 56, ptr nonnull %4) #20
  br label %.loopexit

15:                                               ; preds = %12
  %16 = landingpad { ptr, i32 }
          cleanup
  br label %19

17:                                               ; preds = %14
  %18 = landingpad { ptr, i32 }
          cleanup
  call void @llvm.lifetime.end.p0(i64 1, ptr nonnull %5) #20
  br label %19

19:                                               ; preds = %17, %15
  %.pn = phi { ptr, i32 } [ %18, %17 ], [ %16, %15 ]
  call void @_ZN6google8protobuf8internal10LogMessageD1Ev(ptr noundef nonnull align 8 dereferenceable(56) %4) #20
  call void @llvm.lifetime.end.p0(i64 56, ptr nonnull %4) #20
  resume { ptr, i32 } %.pn

20:                                               ; preds = %.preheader
  %21 = extractvalue { ptr, i64 } %9, 0
  %.sroa.speculated = tail call i64 @llvm.umin.i64(i64 %10, i64 %.0)
  %22 = load ptr, ptr %1, align 8, !tbaa !3
  %23 = getelementptr inbounds nuw i8, ptr %22, i64 16
  %24 = load ptr, ptr %23, align 8
  tail call void %24(ptr noundef nonnull align 8 dereferenceable(8) %1, ptr noundef %21, i64 noundef %.sroa.speculated)
  %25 = load ptr, ptr %0, align 8, !tbaa !3
  %26 = getelementptr inbounds nuw i8, ptr %25, i64 32
  %27 = load ptr, ptr %26, align 8
  tail call void %27(ptr noundef nonnull align 8 dereferenceable(8) %0, i64 noundef %.sroa.speculated)
  %28 = sub i64 %.0, %.sroa.speculated
  %.not = icmp eq i64 %28, 0
  br i1 %.not, label %.loopexit, label %.preheader

.loopexit:                                        ; preds = %20, %.thread, %3
  ret void
}